target datalayout = "e-m:e-p270:32:32-p271:32:32-p272:64:64-i64:64-i128:128-f80:128-n8:16:32:64-S128"
target triple = "x86_64-pc-linux-gnu"

%struct.ARKodeARKStepMemRec = type { ptr, ptr, i32, i32, i32, i32, i32, i32, ptr, ptr, ptr, ptr, ptr, ptr, i32, i32, i32, i32, ptr, ptr, ptr, ptr, i32, ptr, double, double, double, double, i32, double, double, double, double, double, double, i32, i64, i32, i32, i32, ptr, ptr, ptr, ptr, ptr, ptr, i32, ptr, ptr, ptr, ptr, ptr, ptr, i32, i32, i64, i64, i64, i64, i64, ptr, ptr, i32, i32, i32, double, double, ptr, i32, ptr, ptr }

@__func__.arkStep_GetCurrentGamma = private unnamed_addr constant [24 x i8] c"arkStep_GetCurrentGamma\00", align 1

; Function Attrs: nounwind uwtable
define i32 @arkStep_GetCurrentGamma(ptr noundef %0, ptr noundef %1) #0 {
  %3 = alloca i32, align 4
  %4 = alloca ptr, align 8
  %5 = alloca ptr, align 8
  %6 = alloca i32, align 4
  %7 = alloca ptr, align 8
  %8 = alloca i32, align 4
  store ptr %0, ptr %4, align 8, !tbaa !20
  store ptr %1, ptr %5, align 8, !tbaa !91
  call void @llvm.lifetime.start.p0(i64 4, ptr %6) #4
  call void @llvm.lifetime.start.p0(i64 8, ptr %7) #4
  %9 = load ptr, ptr %4, align 8, !tbaa !20
  %10 = call i32 @arkStep_AccessStepMem(ptr noundef %9, ptr noundef @__func__.arkStep_GetCurrentGamma, ptr noundef %7)
  store i32 %10, ptr %6, align 4, !tbaa !7
  %11 = load i32, ptr %6, align 4, !tbaa !7
  %12 = icmp ne i32 %11, 0
  br i1 %12, label %13, label %15

13:                                               ; preds = %2
  %14 = load i32, ptr %6, align 4, !tbaa !7
  store i32 %14, ptr %3, align 4
  store i32 1, ptr %8, align 4
  br label %21

15:                                               ; preds = %2
  %16 = load ptr, ptr %7, align 8, !tbaa !9
  %17 = getelementptr inbounds nuw %struct.ARKodeARKStepMemRec, ptr %16, i32 0, i32 24
  %18 = load double, ptr %17, align 8, !tbaa !92
  %19 = load ptr, ptr %5, align 8, !tbaa !91
  store double %18, ptr %19, align 8, !tbaa !89
  %20 = load i32, ptr %6, align 4, !tbaa !7
  store i32 %20, ptr %3, align 4
  store i32 1, ptr %8, align 4
  br label %21

21:                                               ; preds = %15, %13
  call void @llvm.lifetime.end.p0(i64 8, ptr %7) #4
  call void @llvm.lifetime.end.p0(i64 4, ptr %6) #4
  %22 = load i32, ptr %3, align 4
  ret i32 %22
}